; Function Attrs: nounwind uwtable
define range(i32 -1, 1) i32 @H5Pget_dset_no_attrs_hint(i64 noundef %0, ptr noundef writeonly captures(address_is_null) %1) local_unnamed_addr #0 {
  %3 = alloca i8, align 1
  %4 = alloca %struct.H5CX_node_t, align 8
  call void @llvm.lifetime.start.p0(i64 1, ptr nonnull %3) #12
  store i8 0, ptr %3, align 1, !tbaa !3
  call void @llvm.lifetime.start.p0(i64 480, ptr nonnull %4) #12
  call void @llvm.memset.p0.i64(ptr noundef nonnull align 8 dereferenceable(480) %4, i8 0, i64 480, i1 false)
  %5 = load i8, ptr @H5_libinit_g, align 1, !tbaa !3, !range !7, !noundef !8
  %6 = trunc nuw i8 %5 to i1
  %7 = load i8, ptr @H5_libterm_g, align 1, !range !7
  %8 = trunc nuw i8 %7 to i1
  %9 = select i1 %6, i1 true, i1 %8
  br i1 %9, label %17, label %10, !prof !9

10:                                               ; preds = %2
  %11 = tail call i32 @H5_init_library() #12
  %12 = icmp slt i32 %11, 0
  br i1 %12, label %13, label %._crit_edge, !prof !23

._crit_edge:                                      ; preds = %10
  %.pre = load i8, ptr @H5_libterm_g, align 1, !range !7
  br label %17

13:                                               ; preds = %10
  %14 = load i64, ptr @H5E_FUNC_g, align 8, !tbaa !10
  %15 = load i64, ptr @H5E_CANTINIT_g, align 8, !tbaa !10
  %16 = tail call i32 (ptr, ptr, i32, i64, i64, ptr, ...) @H5E_printf_stack(ptr noundef nonnull @.str.1, ptr noundef nonnull @__func__.H5Pget_dset_no_attrs_hint, i32 noundef 3495, i64 noundef %14, i64 noundef %15, ptr noundef nonnull @.str.2) #12
  br label %.thread25

17:                                               ; preds = %._crit_edge, %2
  %18 = phi i8 [ %.pre, %._crit_edge ], [ %7, %2 ]
  %19 = load i8, ptr @H5P_init_g, align 1, !tbaa !3, !range !7, !noundef !8
  %20 = trunc nuw i8 %19 to i1
  %21 = trunc nuw i8 %18 to i1
  %22 = select i1 %20, i1 true, i1 %21
  br i1 %22, label %30, label %23, !prof !9

23:                                               ; preds = %17
  store i8 1, ptr @H5P_init_g, align 1, !tbaa !3
  %24 = tail call i32 @H5P__init_package() #12
  %25 = icmp slt i32 %24, 0
  br i1 %25, label %26, label %30, !prof !24

26:                                               ; preds = %23
  store i8 0, ptr @H5P_init_g, align 1, !tbaa !3
  %27 = load i64, ptr @H5E_FUNC_g, align 8, !tbaa !10
  %28 = load i64, ptr @H5E_CANTINIT_g, align 8, !tbaa !10
  %29 = tail call i32 (ptr, ptr, i32, i64, i64, ptr, ...) @H5E_printf_stack(ptr noundef nonnull @.str.1, ptr noundef nonnull @__func__.H5Pget_dset_no_attrs_hint, i32 noundef 3495, i64 noundef %27, i64 noundef %28, ptr noundef nonnull @.str.3) #12
  br label %.thread25

30:                                               ; preds = %17, %23
  %31 = call i32 @H5CX_push(ptr noundef nonnull %4) #12
  %32 = icmp slt i32 %31, 0
  br i1 %32, label %33, label %37, !prof !23

33:                                               ; preds = %30
  %34 = load i64, ptr @H5E_FUNC_g, align 8, !tbaa !10
  %35 = load i64, ptr @H5E_CANTSET_g, align 8, !tbaa !10
  %36 = call i32 (ptr, ptr, i32, i64, i64, ptr, ...) @H5E_printf_stack(ptr noundef nonnull @.str.1, ptr noundef nonnull @__func__.H5Pget_dset_no_attrs_hint, i32 noundef 3495, i64 noundef %34, i64 noundef %35, ptr noundef nonnull @.str.4) #12
  br label %.thread25

37:                                               ; preds = %30
  %38 = call i32 @H5E_clear_stack() #12
  %39 = icmp eq ptr %1, null
  br i1 %39, label %40, label %44, !prof !25

40:                                               ; preds = %37
  %41 = load i64, ptr @H5E_ARGS_g, align 8, !tbaa !10
  %42 = load i64, ptr @H5E_BADVALUE_g, align 8, !tbaa !10
  %43 = call i32 (ptr, ptr, i32, i64, i64, ptr, ...) @H5E_printf_stack(ptr noundef nonnull @.str.1, ptr noundef nonnull @__func__.H5Pget_dset_no_attrs_hint, i32 noundef 3498, i64 noundef %41, i64 noundef %42, ptr noundef nonnull @.str.83) #12
  br label %.thread31

44:                                               ; preds = %37
  %45 = load i64, ptr @H5P_CLS_DATASET_CREATE_ID_g, align 8, !tbaa !10
  %46 = call ptr @H5P_object_verify(i64 noundef %0, i64 noundef %45, i1 noundef zeroext true) #12
  %47 = icmp eq ptr %46, null
  br i1 %47, label %48, label %52, !prof !25

48:                                               ; preds = %44
  %49 = load i64, ptr @H5E_ID_g, align 8, !tbaa !10
  %50 = load i64, ptr @H5E_BADID_g, align 8, !tbaa !10
  %51 = call i32 (ptr, ptr, i32, i64, i64, ptr, ...) @H5E_printf_stack(ptr noundef nonnull @.str.1, ptr noundef nonnull @__func__.H5Pget_dset_no_attrs_hint, i32 noundef 3502, i64 noundef %49, i64 noundef %50, ptr noundef nonnull @.str.6) #12
  br label %.thread31

52:                                               ; preds = %44
  %53 = call i32 @H5P_peek(ptr noundef nonnull %46, ptr noundef nonnull @.str.84, ptr noundef nonnull %3) #12
  %54 = icmp slt i32 %53, 0
  br i1 %54, label %55, label %60, !prof !25

55:                                               ; preds = %52
  %56 = load i64, ptr @H5E_PLIST_g, align 8, !tbaa !10
  %57 = load i64, ptr @H5E_CANTGET_g, align 8, !tbaa !10
  %58 = call i32 (ptr, ptr, i32, i64, i64, ptr, ...) @H5E_printf_stack(ptr noundef nonnull @.str.1, ptr noundef nonnull @__func__.H5Pget_dset_no_attrs_hint, i32 noundef 3505, i64 noundef %56, i64 noundef %57, ptr noundef nonnull @.str.85) #12
  br label %.thread31

.thread31:                                        ; preds = %55, %48, %40
  %59 = call i32 @H5CX_pop(i1 noundef zeroext true) #12
  br label %.thread25

60:                                               ; preds = %52
  %61 = load i8, ptr %3, align 1, !tbaa !3, !range !7, !noundef !8
  store i8 %61, ptr %1, align 1, !tbaa !3
  %62 = call i32 @H5CX_pop(i1 noundef zeroext true) #12
  br label %64

.thread25:                                        ; preds = %33, %26, %13, %.thread31
  %63 = call i32 @H5E_dump_api_stack() #12
  br label %64

64:                                               ; preds = %60, %.thread25
  %.0142028 = phi i32 [ -1, %.thread25 ], [ 0, %60 ]
  call void @llvm.lifetime.end.p0(i64 480, ptr nonnull %4) #12
  call void @llvm.lifetime.end.p0(i64 1, ptr nonnull %3) #12
  ret i32 %.0142028
}